target datalayout = "e-m:e-p270:32:32-p271:32:32-p272:64:64-i64:64-i128:128-f80:128-n8:16:32:64-S128"
target triple = "x86_64-pc-linux-gnu"

%class.OffMeshConnectionTool = type <{ %struct.SampleTool, ptr, [3 x float], i8, i8, i8, i8 }>
%struct.SampleTool = type { ptr }

@_ZTV10SampleTool = external unnamed_addr constant { [14 x ptr] }, align 8

; Function Attrs: mustprogress nounwind uwtable
define linkonce_odr dso_local void @_ZN10SampleToolC2Ev(ptr noundef nonnull align 8 dereferenceable(8) %0) unnamed_addr #0 comdat align 2 {
  %2 = alloca ptr, align 8
  store ptr %0, ptr %2, align 8
  %3 = load ptr, ptr %2, align 8
  store ptr getelementptr inbounds ({ [14 x ptr] }, ptr @_ZTV10SampleTool, i32 0, i32 0, i32 2), ptr %3, align 8
  ret void
}

; Function Attrs: mustprogress nounwind uwtable
define dso_local void @_ZN21OffMeshConnectionToolC2Ev(ptr noundef nonnull align 8 dereferenceable(31) %0) unnamed_addr #0 align 2 {
  %2 = alloca ptr, align 8
  store ptr %0, ptr %2, align 8
  %3 = load ptr, ptr %2, align 8
  call void @_ZN10SampleToolC2Ev(ptr noundef nonnull align 8 dereferenceable(8) %3) #7
  store ptr getelementptr inbounds ({ [14 x ptr] }, ptr @_ZTV21OffMeshConnectionTool, i32 0, i32 0, i32 2), ptr %3, align 8
  %4 = getelementptr inbounds %class.OffMeshConnectionTool, ptr %3, i32 0, i32 1
  store ptr null, ptr %4, align 8
  %5 = getelementptr inbounds %class.OffMeshConnectionTool, ptr %3, i32 0, i32 3
  store i8 0, ptr %5, align 4
  %6 = getelementptr inbounds %class.OffMeshConnectionTool, ptr %3, i32 0, i32 4
  store i8 1, ptr %6, align 1
  %7 = getelementptr inbounds %class.OffMeshConnectionTool, ptr %3, i32 0, i32 5
  store i8 0, ptr %7, align 2
  ret void
}