; Function Attrs: mustprogress nofree norecurse nosync nounwind willreturn memory(argmem: write) uwtable
define dso_local void @_ZN21OffMeshConnectionToolC2Ev(ptr nocapture noundef nonnull writeonly align 8 dereferenceable(31) %0) unnamed_addr #0 align 2 {
  store ptr getelementptr inbounds ({ [14 x ptr] }, ptr @_ZTV21OffMeshConnectionTool, i64 0, i32 0, i64 2), ptr %0, align 8
  %2 = getelementptr inbounds i8, ptr %0, i64 8
  store ptr null, ptr %2, align 8
  %3 = getelementptr inbounds i8, ptr %0, i64 28
  store i8 0, ptr %3, align 4
  %4 = getelementptr inbounds i8, ptr %0, i64 29
  store i8 1, ptr %4, align 1
  %5 = getelementptr inbounds i8, ptr %0, i64 30
  store i8 0, ptr %5, align 2
  ret void
}